; Function Attrs: mustprogress nofree norecurse nosync nounwind willreturn memory(argmem: read) uwtable
define internal i32 @cmp_string_list_util_as_integral(ptr noundef readonly captures(none) %0, ptr noundef readonly captures(none) %1) #9 {
  %3 = getelementptr inbounds nuw i8, ptr %1, i64 8
  %4 = load ptr, ptr %3, align 8, !tbaa !57
  %5 = ptrtoint ptr %4 to i64
  %6 = getelementptr inbounds nuw i8, ptr %0, i64 8
  %7 = load ptr, ptr %6, align 8, !tbaa !57
  %8 = ptrtoint ptr %7 to i64
  %9 = sub nsw i64 %5, %8
  %10 = trunc i64 %9 to i32
  ret i32 %10
}